; Function Attrs: mustprogress uwtable
define noundef range(i32 0, 2) i32 @_ZN12colvarmodule7rvector18from_simple_stringERKNSt7__cxx1112basic_stringIcSt11char_traitsIcESaIcEEE(ptr noundef nonnull align 8 dereferenceable(24) %0, ptr noundef nonnull align 8 dereferenceable(32) %1) local_unnamed_addr #0 align 2 personality ptr @__gxx_personality_v0 {
  %3 = alloca %"class.std::__cxx11::basic_stringstream", align 8
  call void @llvm.lifetime.start.p0(i64 392, ptr nonnull %3) #20
  call void @_ZNSt7__cxx1118basic_stringstreamIcSt11char_traitsIcESaIcEEC1ERKNS_12basic_stringIcS2_S3_EESt13_Ios_Openmode(ptr noundef nonnull align 8 dereferenceable(128) %3, ptr noundef nonnull align 8 dereferenceable(32) %1, i32 noundef 24)
  %4 = invoke noundef nonnull align 8 dereferenceable(16) ptr @_ZNSi10_M_extractIdEERSiRT_(ptr noundef nonnull align 8 dereferenceable(16) %3, ptr noundef nonnull align 8 dereferenceable(8) %0)
          to label %5 unwind label %35

5:                                                ; preds = %2
  %6 = load ptr, ptr %4, align 8, !tbaa !4
  %7 = getelementptr i8, ptr %6, i64 -24
  %8 = load i64, ptr %7, align 8
  %9 = getelementptr inbounds i8, ptr %4, i64 %8
  %10 = getelementptr inbounds nuw i8, ptr %9, i64 32
  %11 = load i32, ptr %10, align 8, !tbaa !45
  %12 = and i32 %11, 5
  %.not = icmp eq i32 %12, 0
  br i1 %.not, label %13, label %37

13:                                               ; preds = %5
  %14 = getelementptr inbounds nuw i8, ptr %0, i64 8
  %15 = invoke noundef nonnull align 8 dereferenceable(16) ptr @_ZNSi10_M_extractIdEERSiRT_(ptr noundef nonnull align 8 dereferenceable(16) %3, ptr noundef nonnull align 8 dereferenceable(8) %14)
          to label %16 unwind label %35

16:                                               ; preds = %13
  %17 = load ptr, ptr %15, align 8, !tbaa !4
  %18 = getelementptr i8, ptr %17, i64 -24
  %19 = load i64, ptr %18, align 8
  %20 = getelementptr inbounds i8, ptr %15, i64 %19
  %21 = getelementptr inbounds nuw i8, ptr %20, i64 32
  %22 = load i32, ptr %21, align 8, !tbaa !45
  %23 = and i32 %22, 5
  %.not6 = icmp eq i32 %23, 0
  br i1 %.not6, label %24, label %37

24:                                               ; preds = %16
  %25 = getelementptr inbounds nuw i8, ptr %0, i64 16
  %26 = invoke noundef nonnull align 8 dereferenceable(16) ptr @_ZNSi10_M_extractIdEERSiRT_(ptr noundef nonnull align 8 dereferenceable(16) %3, ptr noundef nonnull align 8 dereferenceable(8) %25)
          to label %27 unwind label %35

27:                                               ; preds = %24
  %28 = load ptr, ptr %26, align 8, !tbaa !4
  %29 = getelementptr i8, ptr %28, i64 -24
  %30 = load i64, ptr %29, align 8
  %31 = getelementptr inbounds i8, ptr %26, i64 %30
  %32 = getelementptr inbounds nuw i8, ptr %31, i64 32
  %33 = load i32, ptr %32, align 8, !tbaa !45
  %34 = and i32 %33, 5
  %.not7 = icmp ne i32 %34, 0
  %spec.select = zext i1 %.not7 to i32
  br label %37

35:                                               ; preds = %24, %13, %2
  %36 = landingpad { ptr, i32 }
          cleanup
  call void @_ZNSt7__cxx1118basic_stringstreamIcSt11char_traitsIcESaIcEED1Ev(ptr noundef nonnull align 8 dereferenceable(128) %3) #20
  call void @llvm.lifetime.end.p0(i64 392, ptr nonnull %3) #20
  resume { ptr, i32 } %36

37:                                               ; preds = %27, %5, %16
  %.0 = phi i32 [ 1, %16 ], [ 1, %5 ], [ %spec.select, %27 ]
  %38 = load ptr, ptr @_ZTTNSt7__cxx1118basic_stringstreamIcSt11char_traitsIcESaIcEEE, align 8
  store ptr %38, ptr %3, align 8, !tbaa !4
  %39 = load ptr, ptr getelementptr inbounds nuw (i8, ptr @_ZTTNSt7__cxx1118basic_stringstreamIcSt11char_traitsIcESaIcEEE, i64 64), align 8
  %40 = getelementptr i8, ptr %38, i64 -24
  %41 = load i64, ptr %40, align 8
  %42 = getelementptr inbounds i8, ptr %3, i64 %41
  store ptr %39, ptr %42, align 8, !tbaa !4
  %43 = load ptr, ptr getelementptr inbounds nuw (i8, ptr @_ZTTNSt7__cxx1118basic_stringstreamIcSt11char_traitsIcESaIcEEE, i64 72), align 8
  %44 = getelementptr inbounds nuw i8, ptr %3, i64 16
  store ptr %43, ptr %44, align 8, !tbaa !4
  %45 = getelementptr inbounds nuw i8, ptr %3, i64 24
  store ptr getelementptr inbounds nuw inrange(-16, 112) (i8, ptr @_ZTVNSt7__cxx1115basic_stringbufIcSt11char_traitsIcESaIcEEE, i64 16), ptr %45, align 8, !tbaa !4
  %46 = getelementptr inbounds nuw i8, ptr %3, i64 96
  %47 = load ptr, ptr %46, align 8, !tbaa !44
  %48 = getelementptr inbounds nuw i8, ptr %3, i64 112
  %49 = icmp eq ptr %47, %48
  br i1 %49, label %_ZNKSt7__cxx1112basic_stringIcSt11char_traitsIcESaIcEE11_M_is_localEv.exit.thread.i.i.i.i.i, label %_ZNKSt7__cxx1112basic_stringIcSt11char_traitsIcESaIcEE11_M_is_localEv.exit.i.i.i.i.i

_ZNKSt7__cxx1112basic_stringIcSt11char_traitsIcESaIcEE11_M_is_localEv.exit.thread.i.i.i.i.i: ; preds = %37
  %50 = getelementptr inbounds nuw i8, ptr %3, i64 104
  %51 = load i64, ptr %50, align 8, !tbaa !38
  %52 = icmp ult i64 %51, 16
  call void @llvm.assume(i1 %52)
  br label %_ZNSt7__cxx1118basic_stringstreamIcSt11char_traitsIcESaIcEED1Ev.exit

_ZNKSt7__cxx1112basic_stringIcSt11char_traitsIcESaIcEE11_M_is_localEv.exit.i.i.i.i.i: ; preds = %37
  %53 = load i64, ptr %48, align 8, !tbaa !40
  %54 = add i64 %53, 1
  call void @_ZdlPvm(ptr noundef %47, i64 noundef %54) #21
  br label %_ZNSt7__cxx1118basic_stringstreamIcSt11char_traitsIcESaIcEED1Ev.exit

_ZNSt7__cxx1118basic_stringstreamIcSt11char_traitsIcESaIcEED1Ev.exit: ; preds = %_ZNKSt7__cxx1112basic_stringIcSt11char_traitsIcESaIcEE11_M_is_localEv.exit.thread.i.i.i.i.i, %_ZNKSt7__cxx1112basic_stringIcSt11char_traitsIcESaIcEE11_M_is_localEv.exit.i.i.i.i.i
  store ptr getelementptr inbounds nuw inrange(-16, 112) (i8, ptr @_ZTVSt15basic_streambufIcSt11char_traitsIcEE, i64 16), ptr %45, align 8, !tbaa !4
  %55 = getelementptr inbounds nuw i8, ptr %3, i64 80
  call void @_ZNSt6localeD1Ev(ptr noundef nonnull align 8 dereferenceable(8) %55) #20
  %56 = load ptr, ptr getelementptr inbounds nuw (i8, ptr @_ZTTNSt7__cxx1118basic_stringstreamIcSt11char_traitsIcESaIcEEE, i64 16), align 8
  store ptr %56, ptr %3, align 8, !tbaa !4
  %57 = load ptr, ptr getelementptr inbounds nuw (i8, ptr @_ZTTNSt7__cxx1118basic_stringstreamIcSt11char_traitsIcESaIcEEE, i64 24), align 8
  %58 = getelementptr i8, ptr %56, i64 -24
  %59 = load i64, ptr %58, align 8
  %60 = getelementptr inbounds i8, ptr %3, i64 %59
  store ptr %57, ptr %60, align 8, !tbaa !4
  %61 = getelementptr inbounds nuw i8, ptr %3, i64 8
  store i64 0, ptr %61, align 8, !tbaa !46
  %62 = getelementptr inbounds nuw i8, ptr %3, i64 128
  call void @_ZNSt8ios_baseD2Ev(ptr noundef nonnull align 8 dereferenceable(264) %62) #20
  call void @llvm.lifetime.end.p0(i64 392, ptr nonnull %3) #20
  ret i32 %.0
}